; Function Attrs: nounwind uwtable
define internal i32 @Abc_NtkRenodeEvalSop(ptr noundef readonly captures(none) %0, ptr noundef captures(none) %1) #0 {
  %3 = getelementptr inbounds nuw i8, ptr %1, i64 28
  %4 = load i64, ptr %3, align 4
  %5 = lshr i64 %4, 24
  %6 = and i64 %5, 255
  %7 = and i64 %4, 4278190080
  %.not = icmp eq i64 %7, 0
  br i1 %.not, label %._crit_edge, label %.lr.ph.preheader

.lr.ph.preheader:                                 ; preds = %2
  %8 = getelementptr i8, ptr %1, i64 36
  %9 = getelementptr i32, ptr %8, i64 %6
  %10 = lshr i64 %4, 24
  %11 = and i64 %10, 255
  %umax = tail call i64 @llvm.umax.i64(i64 %11, i64 1)
  tail call void @llvm.memset.p0.i64(ptr noundef nonnull align 1 dereferenceable(1) %9, i8 1, i64 %umax, i1 false)
  br label %._crit_edge

._crit_edge:                                      ; preds = %.lr.ph.preheader, %2
  %12 = getelementptr i8, ptr %1, i64 16
  %.val = load i32, ptr %12, align 4
  %13 = getelementptr inbounds nuw i8, ptr %0, i64 152
  %14 = load ptr, ptr %13, align 8
  %15 = getelementptr inbounds nuw i8, ptr %0, i64 1064
  %16 = getelementptr inbounds nuw [16 x ptr], ptr %15, i64 0, i64 %6
  %17 = load ptr, ptr %16, align 8
  %.not.i.i.i = icmp eq ptr %17, null
  br i1 %.not.i.i.i, label %If_CutTruthWR.exit.i.i, label %18

18:                                               ; preds = %._crit_edge
  %19 = ashr i32 %.val, 1
  %20 = getelementptr inbounds nuw i8, ptr %17, i64 24
  %21 = load ptr, ptr %20, align 8
  %22 = getelementptr inbounds nuw i8, ptr %17, i64 8
  %23 = load i32, ptr %22, align 8
  %24 = ashr i32 %19, %23
  %25 = sext i32 %24 to i64
  %26 = getelementptr inbounds ptr, ptr %21, i64 %25
  %27 = load ptr, ptr %26, align 8
  %28 = load i32, ptr %17, align 8
  %29 = getelementptr inbounds nuw i8, ptr %17, i64 12
  %30 = load i32, ptr %29, align 4
  %31 = and i32 %30, %19
  %32 = mul nsw i32 %31, %28
  %33 = sext i32 %32 to i64
  %34 = getelementptr inbounds i64, ptr %27, i64 %33
  br label %If_CutTruthWR.exit.i.i

If_CutTruthWR.exit.i.i:                           ; preds = %18, %._crit_edge
  %35 = phi ptr [ %34, %18 ], [ null, %._crit_edge ]
  %36 = getelementptr inbounds nuw i8, ptr %0, i64 652
  %37 = getelementptr inbounds nuw [16 x i32], ptr %36, i64 0, i64 %6
  %38 = load i32, ptr %37, align 4
  %39 = and i32 %.val, 1
  %.not.i7.i.i = icmp eq i32 %39, 0
  %40 = icmp sgt i32 %38, 0
  br i1 %.not.i7.i.i, label %.preheader.i.i.i, label %.preheader14.i.i.i

.preheader14.i.i.i:                               ; preds = %If_CutTruthWR.exit.i.i
  br i1 %40, label %.lr.ph.preheader.i.i.i, label %If_CutTruth.exit

.lr.ph.preheader.i.i.i:                           ; preds = %.preheader14.i.i.i
  %wide.trip.count.i.i.i = zext nneg i32 %38 to i64
  br label %.lr.ph.i.i.i

.preheader.i.i.i:                                 ; preds = %If_CutTruthWR.exit.i.i
  br i1 %40, label %.lr.ph18.preheader.i.i.i, label %If_CutTruth.exit

.lr.ph18.preheader.i.i.i:                         ; preds = %.preheader.i.i.i
  %wide.trip.count24.i.i.i = zext nneg i32 %38 to i64
  br label %.lr.ph18.i.i.i

.lr.ph.i.i.i:                                     ; preds = %.lr.ph.i.i.i, %.lr.ph.preheader.i.i.i
  %indvars.iv.i.i.i = phi i64 [ 0, %.lr.ph.preheader.i.i.i ], [ %indvars.iv.next.i.i.i, %.lr.ph.i.i.i ]
  %41 = getelementptr inbounds nuw i64, ptr %35, i64 %indvars.iv.i.i.i
  %42 = load i64, ptr %41, align 8
  %43 = xor i64 %42, -1
  %44 = getelementptr inbounds nuw i64, ptr %14, i64 %indvars.iv.i.i.i
  store i64 %43, ptr %44, align 8
  %indvars.iv.next.i.i.i = add nuw nsw i64 %indvars.iv.i.i.i, 1
  %exitcond.not.i.i.i = icmp eq i64 %indvars.iv.next.i.i.i, %wide.trip.count.i.i.i
  br i1 %exitcond.not.i.i.i, label %If_CutTruth.exit, label %.lr.ph.i.i.i, !llvm.loop !6

.lr.ph18.i.i.i:                                   ; preds = %.lr.ph18.i.i.i, %.lr.ph18.preheader.i.i.i
  %indvars.iv21.i.i.i = phi i64 [ 0, %.lr.ph18.preheader.i.i.i ], [ %indvars.iv.next22.i.i.i, %.lr.ph18.i.i.i ]
  %45 = getelementptr inbounds nuw i64, ptr %35, i64 %indvars.iv21.i.i.i
  %46 = load i64, ptr %45, align 8
  %47 = getelementptr inbounds nuw i64, ptr %14, i64 %indvars.iv21.i.i.i
  store i64 %46, ptr %47, align 8
  %indvars.iv.next22.i.i.i = add nuw nsw i64 %indvars.iv21.i.i.i, 1
  %exitcond25.not.i.i.i = icmp eq i64 %indvars.iv.next22.i.i.i, %wide.trip.count24.i.i.i
  br i1 %exitcond25.not.i.i.i, label %If_CutTruth.exit, label %.lr.ph18.i.i.i, !llvm.loop !7

If_CutTruth.exit:                                 ; preds = %.lr.ph.i.i.i, %.lr.ph18.i.i.i, %.preheader14.i.i.i, %.preheader.i.i.i
  %48 = load ptr, ptr %13, align 8
  %.val13 = load i64, ptr %3, align 4
  %49 = trunc i64 %.val13 to i32
  %50 = lshr i32 %49, 24
  %51 = load ptr, ptr @s_vMemory, align 8
  %52 = tail call i32 @Kit_TruthIsop(ptr noundef %48, i32 noundef %50, ptr noundef %51, i32 noundef 1) #7
  %53 = icmp eq i32 %52, -1
  br i1 %53, label %57, label %54

54:                                               ; preds = %If_CutTruth.exit
  %55 = load ptr, ptr @s_vMemory, align 8
  %56 = getelementptr i8, ptr %55, i64 4
  %.val14 = load i32, ptr %56, align 4
  br label %57

57:                                               ; preds = %If_CutTruth.exit, %54
  %.0 = phi i32 [ %.val14, %54 ], [ 4095, %If_CutTruth.exit ]
  ret i32 %.0
}